target datalayout = "e-m:e-p270:32:32-p271:32:32-p272:64:64-i64:64-i128:128-f80:128-n8:16:32:64-S128"
target triple = "x86_64-pc-linux-gnu"

%struct.AVChannelLayout = type { i32, i32, %union.anon.1, ptr }
%union.anon.1 = type { i64 }
%struct.AVFilterFormatsConfig = type { ptr, ptr, ptr, ptr, ptr }

@query_formats.layouts = internal constant [3 x %struct.AVChannelLayout] [%struct.AVChannelLayout { i32 1, i32 1, %union.anon.1 { i64 4 }, ptr null }, %struct.AVChannelLayout { i32 1, i32 2, %union.anon.1 { i64 3 }, ptr null }, %struct.AVChannelLayout zeroinitializer], align 16
@query_formats.sample_rates = internal constant [7 x i32] [i32 44100, i32 48000, i32 88200, i32 96000, i32 176400, i32 192000, i32 -1], align 16
@query_formats.sample_fmts_in = internal constant [5 x i32] [i32 1, i32 6, i32 2, i32 7, i32 -1], align 16
@query_formats.sample_fmts_out = internal constant [2 x i32] [i32 2, i32 -1], align 4

; Function Attrs: nounwind uwtable
define internal i32 @query_formats(ptr noundef %0, ptr noundef %1, ptr noundef %2) #1 {
  %4 = alloca i32, align 4
  %5 = alloca ptr, align 8
  %6 = alloca ptr, align 8
  %7 = alloca ptr, align 8
  %8 = alloca ptr, align 8
  %9 = alloca ptr, align 8
  %10 = alloca i32, align 4
  %11 = alloca i32, align 4
  store ptr %0, ptr %5, align 8, !tbaa !4
  store ptr %1, ptr %6, align 8, !tbaa !58
  store ptr %2, ptr %7, align 8, !tbaa !58
  call void @llvm.lifetime.start.p0(i64 8, ptr %8) #7
  call void @llvm.lifetime.start.p0(i64 8, ptr %9) #7
  call void @llvm.lifetime.start.p0(i64 4, ptr %10) #7
  %12 = load ptr, ptr %5, align 8, !tbaa !4
  %13 = load ptr, ptr %6, align 8, !tbaa !58
  %14 = load ptr, ptr %7, align 8, !tbaa !58
  %15 = call i32 @ff_set_common_channel_layouts_from_list2(ptr noundef %12, ptr noundef %13, ptr noundef %14, ptr noundef @query_formats.layouts)
  store i32 %15, ptr %10, align 4, !tbaa !32
  %16 = load i32, ptr %10, align 4, !tbaa !32
  %17 = icmp slt i32 %16, 0
  br i1 %17, label %18, label %20

18:                                               ; preds = %3
  %19 = load i32, ptr %10, align 4, !tbaa !32
  store i32 %19, ptr %4, align 4
  store i32 1, ptr %11, align 4
  br label %49

20:                                               ; preds = %3
  %21 = call ptr @ff_make_format_list(ptr noundef @query_formats.sample_fmts_in)
  store ptr %21, ptr %8, align 8, !tbaa !60
  %22 = load ptr, ptr %8, align 8, !tbaa !60
  %23 = load ptr, ptr %6, align 8, !tbaa !58
  %24 = getelementptr inbounds ptr, ptr %23, i64 0
  %25 = load ptr, ptr %24, align 8, !tbaa !62
  %26 = getelementptr inbounds nuw %struct.AVFilterFormatsConfig, ptr %25, i32 0, i32 0
  %27 = call i32 @ff_formats_ref(ptr noundef %22, ptr noundef %26)
  store i32 %27, ptr %10, align 4, !tbaa !32
  %28 = load i32, ptr %10, align 4, !tbaa !32
  %29 = icmp slt i32 %28, 0
  br i1 %29, label %30, label %32

30:                                               ; preds = %20
  %31 = load i32, ptr %10, align 4, !tbaa !32
  store i32 %31, ptr %4, align 4
  store i32 1, ptr %11, align 4
  br label %49

32:                                               ; preds = %20
  %33 = call ptr @ff_make_format_list(ptr noundef @query_formats.sample_fmts_out)
  store ptr %33, ptr %9, align 8, !tbaa !60
  %34 = load ptr, ptr %9, align 8, !tbaa !60
  %35 = load ptr, ptr %7, align 8, !tbaa !58
  %36 = getelementptr inbounds ptr, ptr %35, i64 0
  %37 = load ptr, ptr %36, align 8, !tbaa !62
  %38 = getelementptr inbounds nuw %struct.AVFilterFormatsConfig, ptr %37, i32 0, i32 0
  %39 = call i32 @ff_formats_ref(ptr noundef %34, ptr noundef %38)
  store i32 %39, ptr %10, align 4, !tbaa !32
  %40 = load i32, ptr %10, align 4, !tbaa !32
  %41 = icmp slt i32 %40, 0
  br i1 %41, label %42, label %44

42:                                               ; preds = %32
  %43 = load i32, ptr %10, align 4, !tbaa !32
  store i32 %43, ptr %4, align 4
  store i32 1, ptr %11, align 4
  br label %49

44:                                               ; preds = %32
  %45 = load ptr, ptr %5, align 8, !tbaa !4
  %46 = load ptr, ptr %6, align 8, !tbaa !58
  %47 = load ptr, ptr %7, align 8, !tbaa !58
  %48 = call i32 @ff_set_common_samplerates_from_list2(ptr noundef %45, ptr noundef %46, ptr noundef %47, ptr noundef @query_formats.sample_rates)
  store i32 %48, ptr %4, align 4
  store i32 1, ptr %11, align 4
  br label %49

49:                                               ; preds = %44, %42, %30, %18
  call void @llvm.lifetime.end.p0(i64 4, ptr %10) #7
  call void @llvm.lifetime.end.p0(i64 8, ptr %9) #7
  call void @llvm.lifetime.end.p0(i64 8, ptr %8) #7
  %50 = load i32, ptr %4, align 4
  ret i32 %50
}