; Function Attrs: nounwind uwtable
define internal i32 @query_formats(ptr noundef %0, ptr noundef %1, ptr noundef %2) #1 {
  %4 = tail call i32 @ff_set_common_channel_layouts_from_list2(ptr noundef %0, ptr noundef %1, ptr noundef %2, ptr noundef nonnull @query_formats.layouts) #9
  %5 = icmp slt i32 %4, 0
  br i1 %5, label %18, label %6

6:                                                ; preds = %3
  %7 = tail call ptr @ff_make_format_list(ptr noundef nonnull @query_formats.sample_fmts_in) #9
  %8 = load ptr, ptr %1, align 8, !tbaa !53
  %9 = tail call i32 @ff_formats_ref(ptr noundef %7, ptr noundef %8) #9
  %10 = icmp slt i32 %9, 0
  br i1 %10, label %18, label %11

11:                                               ; preds = %6
  %12 = tail call ptr @ff_make_format_list(ptr noundef nonnull @query_formats.sample_fmts_out) #9
  %13 = load ptr, ptr %2, align 8, !tbaa !53
  %14 = tail call i32 @ff_formats_ref(ptr noundef %12, ptr noundef %13) #9
  %15 = icmp slt i32 %14, 0
  br i1 %15, label %18, label %16

16:                                               ; preds = %11
  %17 = tail call i32 @ff_set_common_samplerates_from_list2(ptr noundef %0, ptr noundef nonnull %1, ptr noundef nonnull %2, ptr noundef nonnull @query_formats.sample_rates) #9
  br label %18

18:                                               ; preds = %11, %6, %3, %16
  %.0 = phi i32 [ %17, %16 ], [ %4, %3 ], [ %9, %6 ], [ %14, %11 ]
  ret i32 %.0
}